gpasm-1.4.0 #1107 (May  9 2015)    blink2.asm   8-10-2020  13:24:17         PAGE  1


LOC    OBJECT CODE    LINE  SOURCE TEXT
  VALUE

                      00001 #include "p10f200.inc"
                      00001         LIST
                      00002 
                      00003 ;==========================================================================
                      00004 ; Build date : Aug 07 2014
                      00005 ;  MPASM PIC10F200 processor include
                      00006 ; 
                      00007 ;  (c) Copyright 1999-2014 Microchip Technology, All rights reserved
                      00008 ;==========================================================================
                      00009 
                      00152         LIST
                      00002 ; CONFIG
0FFF   0FEB           00003    __CONFIG _WDT_OFF & _CP_OFF & _MCLRE_OFF
0000                  00004    ORG 0x0000
0000                  00005 INIT
0000   0CDF           00006    MOVLW  ~(1<<T0CS)      ;Enable GPIO2
0001   0002           00007    OPTION    
0002   0CFD           00008    MOVLW ~(1 << GP1)      ;Set and GP1 as an output
0003   0CFB           00009    MOVLW ~(1 << GP2)      ;Set and GP2 as an output
0004   0006           00010    TRIS GPIO
0005                  00011 LOOP
0005   0426           00012    BCF GPIO, GP1          ;Reset GP1
0006   0546           00013    BSF GPIO, GP2          ;Set GP2
                      00014 
0007   090C           00015    CALL DELAY             ;Call DELAY subroutine
0008   0526           00016    BSF GPIO, GP1          ;Set GP1
0009   0446           00017    BCF GPIO, GP2          ;Reset GP2
                      00018    
000A   090C           00019    CALL DELAY             ;Call DELAY subroutine
000B   0A05           00020    GOTO LOOP              ;loop forever
                      00021  
000C                  00022 DELAY                     ;Start DELAY subroutine here
000C   0CA2           00023     MOVLW D'162'          ;Load initial value for the delay    
000D   0030           00024     MOVWF 10              ;Copy the value to the register 0x10
000E   0031           00025     MOVWF 11              ;Copy the value to the register 0x11
000F                  00026 DELAY_LOOP                ;Start delay loop
000F   02F0           00027     DECFSZ 10, F          ;Decrement the register 0x10 and check if not zero
0010   0A0F           00028     GOTO DELAY_LOOP       ;If not then go to the DELAY_LOOP label
0011   02F1           00029     DECFSZ 11, F          ;Else decrement the register 0x11, check if it is not 0
0012   0A0F           00030     GOTO DELAY_LOOP       ;If not then go to the DELAY_LOOP label
0013   0800           00031     RETLW 0               ;Else return from the subroutine
                      00032  
                      00033     END
gpasm-1.4.0 #1107 (May  9 2015)    blink2.asm   8-10-2020  13:24:17         PAGE  2


SYMBOL TABLE
  LABEL                             VALUE

C                                 00000000
CAL0                              00000001
CAL1                              00000002
CAL2                              00000003
CAL3                              00000004
CAL4                              00000005
CAL5                              00000006
CAL6                              00000007
DC                                00000001
DELAY                             0000000C
DELAY_LOOP                        0000000F
F                                 00000001
FOSC4                             00000000
FSR                               00000004
GP0                               00000000
GP1                               00000001
GP2                               00000002
GP3                               00000003
GPIO                              00000006
GPWUF                             00000007
INDF                              00000000
INIT                              00000000
LOOP                              00000005
NOT_GPPU                          00000006
NOT_GPWU                          00000007
NOT_PD                            00000003
NOT_TO                            00000004
OSCCAL                            00000005
PCL                               00000002
PS0                               00000000
PS1                               00000001
PS2                               00000002
PSA                               00000003
STATUS                            00000003
T0CS                              00000005
T0SE                              00000004
TMR0                              00000001
TRISIO0                           00000000
TRISIO1                           00000001
TRISIO2                           00000002
TRISIO3                           00000003
W                                 00000000
Z                                 00000002
_CONFIG                           00000FFF
_CP_OFF                           00000FFF
_CP_ON                            00000FF7
_IDLOC0                           00000100
_IDLOC1                           00000101
_IDLOC2                           00000102
_IDLOC3                           00000103
_IntRC_OSC                        00000FFF
_MCLRE_OFF                        00000FEF
_MCLRE_ON                         00000FFF
gpasm-1.4.0 #1107 (May  9 2015)    blink2.asm   8-10-2020  13:24:17         PAGE  3


SYMBOL TABLE
  LABEL                             VALUE 

_OSC_IntRC                        00000FFF
_WDTE_OFF                         00000FFB
_WDTE_ON                          00000FFF
_WDT_OFF                          00000FFB
_WDT_ON                           00000FFF
__10F200                          00000001
__CODE_END                        000000FF
__CODE_START                      00000000
__VECTOR_RESET                    00000000


MEMORY USAGE MAP ('X' = Used,  '-' = Unused)

0000 : XXXXXXXXXXXXXXXX XXXX------------ ---------------- ----------------
0FC0 : ---------------- ---------------- ---------------- ---------------X

All other memory blocks unused.

Program Memory Words Used:    20
Program Memory Words Free:   236


Errors   :     0
Warnings :     0 reported,     0 suppressed
Messages :     0 reported,     0 suppressed

